; Function Attrs: mustprogress nofree norecurse nosync nounwind willreturn memory(argmem: read) uwtable
define ptr @ossl_pkcs7_ctx_get0_libctx(ptr noundef readonly captures(address_is_null) %0) local_unnamed_addr #4 {
  %.not = icmp eq ptr %0, null
  br i1 %.not, label %4, label %2

2:                                                ; preds = %1
  %3 = load ptr, ptr %0, align 8, !tbaa !82
  br label %4

4:                                                ; preds = %1, %2
  %5 = phi ptr [ %3, %2 ], [ null, %1 ]
  ret ptr %5
}